; Function Attrs: mustprogress nofree norecurse nosync nounwind willreturn memory(read, inaccessiblemem: none) uwtable
define internal fastcc noundef i32 @_ZNK6icu_7712_GLOBAL__N_111MixedBlocks9findBlockIttEEiPKT_PKT0_i(ptr noundef nonnull readonly align 8 captures(none) dereferenceable(28) %0, ptr noundef readonly captures(none) %1, ptr noundef readonly captures(none) %2, i32 noundef %3) unnamed_addr #4 align 2 {
  %5 = getelementptr inbounds nuw i8, ptr %0, i64 24
  %.val = load i32, ptr %5, align 8, !tbaa !62
  %.fr46.i = freeze i32 %.val
  %6 = add nsw i32 %.fr46.i, %3
  %7 = add i32 %3, 1
  %8 = sext i32 %3 to i64
  %9 = getelementptr inbounds i16, ptr %2, i64 %8
  %10 = load i16, ptr %9, align 2, !tbaa !33
  %11 = zext i16 %10 to i32
  %12 = sext i32 %7 to i64
  %13 = sext i32 %6 to i64
  br label %14

14:                                               ; preds = %14, %4
  %indvars.iv.i = phi i64 [ %indvars.iv.next.i, %14 ], [ %12, %4 ]
  %.0.i = phi i32 [ %19, %14 ], [ %11, %4 ]
  %15 = mul i32 %.0.i, 37
  %indvars.iv.next.i = add nsw i64 %indvars.iv.i, 1
  %16 = getelementptr inbounds i16, ptr %2, i64 %indvars.iv.i
  %17 = load i16, ptr %16, align 2, !tbaa !33
  %18 = zext i16 %17 to i32
  %19 = add i32 %15, %18
  %20 = icmp slt i64 %indvars.iv.next.i, %13
  br i1 %20, label %14, label %_ZNK6icu_7712_GLOBAL__N_111MixedBlocks12makeHashCodeItEEjPKT_i.exit, !llvm.loop !106

_ZNK6icu_7712_GLOBAL__N_111MixedBlocks12makeHashCodeItEEjPKT_i.exit: ; preds = %14
  %21 = getelementptr inbounds nuw i8, ptr %0, i64 16
  %22 = load i32, ptr %21, align 8, !tbaa !55
  %23 = shl i32 %19, %22
  %24 = getelementptr inbounds nuw i8, ptr %0, i64 12
  %25 = load i32, ptr %24, align 4, !tbaa !61
  %26 = add nsw i32 %25, -1
  %27 = urem i32 %19, %26
  %28 = add nuw i32 %27, 1
  %29 = load ptr, ptr %0, align 8, !tbaa !58
  %30 = sext i32 %28 to i64
  %31 = getelementptr inbounds i32, ptr %29, i64 %30
  %32 = load i32, ptr %31, align 4, !tbaa !25
  %33 = icmp eq i32 %32, 0
  br i1 %33, label %._crit_edge.i, label %.lr.ph.i

.lr.ph.i:                                         ; preds = %_ZNK6icu_7712_GLOBAL__N_111MixedBlocks12makeHashCodeItEEjPKT_i.exit
  %34 = getelementptr inbounds nuw i8, ptr %0, i64 20
  %35 = load i32, ptr %34, align 4, !tbaa !57
  %36 = xor i32 %35, -1
  %37 = icmp sgt i32 %.fr46.i, 0
  br i1 %37, label %.lr.ph.split.us.i, label %.lr.ph.split.i

.lr.ph.split.us.i:                                ; preds = %.lr.ph.i, %_ZN6icu_7712_GLOBAL__N_111equalBlocksIttEEbPKT_PKT0_i.exit.thread27.us.i
  %38 = phi i32 [ %52, %_ZN6icu_7712_GLOBAL__N_111equalBlocksIttEEbPKT_PKT0_i.exit.thread27.us.i ], [ %32, %.lr.ph.i ]
  %.02237.us.i = phi i32 [ %49, %_ZN6icu_7712_GLOBAL__N_111equalBlocksIttEEbPKT_PKT0_i.exit.thread27.us.i ], [ %28, %.lr.ph.i ]
  %39 = and i32 %38, %36
  %40 = icmp eq i32 %39, %23
  br i1 %40, label %.lr.ph.i.preheader.us.i, label %_ZN6icu_7712_GLOBAL__N_111equalBlocksIttEEbPKT_PKT0_i.exit.thread27.us.i

.lr.ph.i.preheader.us.i:                          ; preds = %.lr.ph.split.us.i
  %41 = and i32 %38, %35
  %42 = add i32 %41, -1
  %43 = sext i32 %42 to i64
  %44 = getelementptr inbounds i16, ptr %1, i64 %43
  br label %.lr.ph.i.us.i

.lr.ph.i.us.i:                                    ; preds = %54, %.lr.ph.i.preheader.us.i
  %.010.i.us.i = phi i32 [ %57, %54 ], [ %.fr46.i, %.lr.ph.i.preheader.us.i ]
  %.069.i.us.i = phi ptr [ %56, %54 ], [ %9, %.lr.ph.i.preheader.us.i ]
  %.078.i.us.i = phi ptr [ %55, %54 ], [ %44, %.lr.ph.i.preheader.us.i ]
  %45 = load i16, ptr %.078.i.us.i, align 2, !tbaa !33
  %46 = load i16, ptr %.069.i.us.i, align 2, !tbaa !33
  %47 = icmp eq i16 %45, %46
  br i1 %47, label %54, label %_ZN6icu_7712_GLOBAL__N_111equalBlocksIttEEbPKT_PKT0_i.exit.thread27.us.i

_ZN6icu_7712_GLOBAL__N_111equalBlocksIttEEbPKT_PKT0_i.exit.thread27.us.i: ; preds = %.lr.ph.i.us.i, %.lr.ph.split.us.i
  %48 = add nsw i32 %.02237.us.i, %28
  %49 = srem i32 %48, %25
  %50 = sext i32 %49 to i64
  %51 = getelementptr inbounds i32, ptr %29, i64 %50
  %52 = load i32, ptr %51, align 4, !tbaa !25
  %53 = icmp eq i32 %52, 0
  br i1 %53, label %._crit_edge.i, label %.lr.ph.split.us.i, !llvm.loop !107

54:                                               ; preds = %.lr.ph.i.us.i
  %55 = getelementptr inbounds nuw i8, ptr %.078.i.us.i, i64 2
  %56 = getelementptr inbounds nuw i8, ptr %.069.i.us.i, i64 2
  %57 = add nsw i32 %.010.i.us.i, -1
  %58 = icmp sgt i32 %.010.i.us.i, 1
  br i1 %58, label %.lr.ph.i.us.i, label %_ZNK6icu_7712_GLOBAL__N_111MixedBlocks9findEntryIttEEiPKT_PKT0_ij.exit, !llvm.loop !86

.lr.ph.split.i:                                   ; preds = %.lr.ph.i
  %59 = icmp eq i32 %.fr46.i, 0
  br i1 %59, label %.lr.ph.split.split.us.i, label %.lr.ph.split.split.i

.lr.ph.split.split.us.i:                          ; preds = %.lr.ph.split.i, %_ZN6icu_7712_GLOBAL__N_111equalBlocksIttEEbPKT_PKT0_i.exit.thread27.us40.i
  %60 = phi i32 [ %67, %_ZN6icu_7712_GLOBAL__N_111equalBlocksIttEEbPKT_PKT0_i.exit.thread27.us40.i ], [ %32, %.lr.ph.split.i ]
  %.02237.us39.i = phi i32 [ %64, %_ZN6icu_7712_GLOBAL__N_111equalBlocksIttEEbPKT_PKT0_i.exit.thread27.us40.i ], [ %28, %.lr.ph.split.i ]
  %61 = and i32 %60, %36
  %62 = icmp eq i32 %61, %23
  br i1 %62, label %_ZNK6icu_7712_GLOBAL__N_111MixedBlocks9findEntryIttEEiPKT_PKT0_ij.exit, label %_ZN6icu_7712_GLOBAL__N_111equalBlocksIttEEbPKT_PKT0_i.exit.thread27.us40.i

_ZN6icu_7712_GLOBAL__N_111equalBlocksIttEEbPKT_PKT0_i.exit.thread27.us40.i: ; preds = %.lr.ph.split.split.us.i
  %63 = add nsw i32 %.02237.us39.i, %28
  %64 = srem i32 %63, %25
  %65 = sext i32 %64 to i64
  %66 = getelementptr inbounds i32, ptr %29, i64 %65
  %67 = load i32, ptr %66, align 4, !tbaa !25
  %68 = icmp eq i32 %67, 0
  br i1 %68, label %._crit_edge.i, label %.lr.ph.split.split.us.i, !llvm.loop !107

._crit_edge.i:                                    ; preds = %.lr.ph.split.split.i, %_ZN6icu_7712_GLOBAL__N_111equalBlocksIttEEbPKT_PKT0_i.exit.thread27.us40.i, %_ZN6icu_7712_GLOBAL__N_111equalBlocksIttEEbPKT_PKT0_i.exit.thread27.us.i, %_ZNK6icu_7712_GLOBAL__N_111MixedBlocks12makeHashCodeItEEjPKT_i.exit
  %.022.lcssa.i = phi i32 [ %28, %_ZNK6icu_7712_GLOBAL__N_111MixedBlocks12makeHashCodeItEEjPKT_i.exit ], [ %49, %_ZN6icu_7712_GLOBAL__N_111equalBlocksIttEEbPKT_PKT0_i.exit.thread27.us.i ], [ %64, %_ZN6icu_7712_GLOBAL__N_111equalBlocksIttEEbPKT_PKT0_i.exit.thread27.us40.i ], [ %71, %.lr.ph.split.split.i ]
  %69 = xor i32 %.022.lcssa.i, -1
  br label %_ZNK6icu_7712_GLOBAL__N_111MixedBlocks9findEntryIttEEiPKT_PKT0_ij.exit

.lr.ph.split.split.i:                             ; preds = %.lr.ph.split.i, %.lr.ph.split.split.i
  %.02237.i = phi i32 [ %71, %.lr.ph.split.split.i ], [ %28, %.lr.ph.split.i ]
  %70 = add nsw i32 %.02237.i, %28
  %71 = srem i32 %70, %25
  %72 = sext i32 %71 to i64
  %73 = getelementptr inbounds i32, ptr %29, i64 %72
  %74 = load i32, ptr %73, align 4, !tbaa !25
  %75 = icmp eq i32 %74, 0
  br i1 %75, label %._crit_edge.i, label %.lr.ph.split.split.i, !llvm.loop !107

_ZNK6icu_7712_GLOBAL__N_111MixedBlocks9findEntryIttEEiPKT_PKT0_ij.exit: ; preds = %.lr.ph.split.split.us.i, %54, %._crit_edge.i
  %.1.ph.i = phi i32 [ %69, %._crit_edge.i ], [ %.02237.us.i, %54 ], [ %.02237.us39.i, %.lr.ph.split.split.us.i ]
  %76 = icmp sgt i32 %.1.ph.i, -1
  br i1 %76, label %77, label %85

77:                                               ; preds = %_ZNK6icu_7712_GLOBAL__N_111MixedBlocks9findEntryIttEEiPKT_PKT0_ij.exit
  %78 = zext nneg i32 %.1.ph.i to i64
  %79 = getelementptr inbounds nuw i32, ptr %29, i64 %78
  %80 = load i32, ptr %79, align 4, !tbaa !25
  %81 = getelementptr inbounds nuw i8, ptr %0, i64 20
  %82 = load i32, ptr %81, align 4, !tbaa !57
  %83 = and i32 %82, %80
  %84 = add i32 %83, -1
  br label %85

85:                                               ; preds = %_ZNK6icu_7712_GLOBAL__N_111MixedBlocks9findEntryIttEEiPKT_PKT0_ij.exit, %77
  %.0 = phi i32 [ %84, %77 ], [ -1, %_ZNK6icu_7712_GLOBAL__N_111MixedBlocks9findEntryIttEEiPKT_PKT0_ij.exit ]
  ret i32 %.0
}